target datalayout = "e-m:e-p270:32:32-p271:32:32-p272:64:64-i64:64-i128:128-f80:128-n8:16:32:64-S128"
target triple = "x86_64-pc-linux-gnu"

%struct.mbedtls_ecp_group = type { i32, %struct.mbedtls_mpi, %struct.mbedtls_mpi, %struct.mbedtls_mpi, %struct.mbedtls_ecp_point, %struct.mbedtls_mpi, i64, i64, i32, ptr, ptr, ptr, ptr, ptr, i64 }
%struct.mbedtls_ecp_point = type { %struct.mbedtls_mpi, %struct.mbedtls_mpi, %struct.mbedtls_mpi }
%struct.mbedtls_mpi = type { ptr, i16, i16 }

; Function Attrs: inlinehint nounwind uwtable
define internal i32 @mbedtls_mpi_mul_int_mod(ptr noundef %0, ptr noundef %1, ptr noundef %2, i64 noundef %3) #8 {
  %5 = alloca ptr, align 8
  %6 = alloca ptr, align 8
  %7 = alloca ptr, align 8
  %8 = alloca i64, align 8
  %9 = alloca i32, align 4
  store ptr %0, ptr %5, align 8, !tbaa !25
  store ptr %1, ptr %6, align 8, !tbaa !50
  store ptr %2, ptr %7, align 8, !tbaa !50
  store i64 %3, ptr %8, align 8, !tbaa !7
  call void @llvm.lifetime.start.p0(i64 4, ptr %9) #11
  store i32 -110, ptr %9, align 4, !tbaa !3
  br label %10

10:                                               ; preds = %4
  %11 = load ptr, ptr %6, align 8, !tbaa !50
  %12 = load ptr, ptr %7, align 8, !tbaa !50
  %13 = load i64, ptr %8, align 8, !tbaa !7
  %14 = call i32 @mbedtls_mpi_mul_int(ptr noundef %11, ptr noundef %12, i64 noundef %13)
  store i32 %14, ptr %9, align 4, !tbaa !3
  %15 = icmp ne i32 %14, 0
  br i1 %15, label %16, label %17

16:                                               ; preds = %10
  br label %39

17:                                               ; preds = %10
  br label %18

18:                                               ; preds = %17
  br label %19

19:                                               ; preds = %18
  br label %20

20:                                               ; preds = %37, %19
  %21 = load ptr, ptr %6, align 8, !tbaa !50
  %22 = load ptr, ptr %5, align 8, !tbaa !25
  %23 = getelementptr inbounds nuw %struct.mbedtls_ecp_group, ptr %22, i32 0, i32 1
  %24 = call i32 @mbedtls_mpi_cmp_mpi(ptr noundef %21, ptr noundef %23)
  %25 = icmp sge i32 %24, 0
  br i1 %25, label %26, label %38

26:                                               ; preds = %20
  br label %27

27:                                               ; preds = %26
  %28 = load ptr, ptr %6, align 8, !tbaa !50
  %29 = load ptr, ptr %6, align 8, !tbaa !50
  %30 = load ptr, ptr %5, align 8, !tbaa !25
  %31 = getelementptr inbounds nuw %struct.mbedtls_ecp_group, ptr %30, i32 0, i32 1
  %32 = call i32 @mbedtls_mpi_sub_abs(ptr noundef %28, ptr noundef %29, ptr noundef %31)
  store i32 %32, ptr %9, align 4, !tbaa !3
  %33 = icmp ne i32 %32, 0
  br i1 %33, label %34, label %35

34:                                               ; preds = %27
  br label %39

35:                                               ; preds = %27
  br label %36

36:                                               ; preds = %35
  br label %37

37:                                               ; preds = %36
  br label %20, !llvm.loop !86

38:                                               ; preds = %20
  br label %39

39:                                               ; preds = %38, %34, %16
  %40 = load i32, ptr %9, align 4, !tbaa !3
  call void @llvm.lifetime.end.p0(i64 4, ptr %9) #11
  ret i32 %40
}