; Function Attrs: inlinehint nounwind uwtable
define internal fastcc i32 @mbedtls_mpi_mul_int_mod(ptr noundef %0, ptr noundef nonnull %1, ptr noundef nonnull %2) unnamed_addr #15 {
  %4 = tail call i32 @mbedtls_mpi_mul_int(ptr noundef nonnull %1, ptr noundef nonnull %2, i64 noundef 3) #21
  %.not = icmp eq i32 %4, 0
  br i1 %.not, label %.preheader, label %.loopexit

.preheader:                                       ; preds = %3
  %5 = getelementptr inbounds nuw i8, ptr %0, i64 8
  br label %6

6:                                                ; preds = %.preheader, %9
  %7 = tail call i32 @mbedtls_mpi_cmp_mpi(ptr noundef nonnull %1, ptr noundef nonnull %5) #21
  %8 = icmp sgt i32 %7, -1
  br i1 %8, label %9, label %.loopexit

9:                                                ; preds = %6
  %10 = tail call i32 @mbedtls_mpi_sub_abs(ptr noundef nonnull %1, ptr noundef nonnull %1, ptr noundef nonnull %5) #21
  %.not12 = icmp eq i32 %10, 0
  br i1 %.not12, label %6, label %.loopexit, !llvm.loop !71

.loopexit:                                        ; preds = %6, %9, %3
  %.0 = phi i32 [ %4, %3 ], [ 0, %6 ], [ %10, %9 ]
  ret i32 %.0
}